target datalayout = "e-m:e-p270:32:32-p271:32:32-p272:64:64-i64:64-i128:128-f80:128-n8:16:32:64-S128"
target triple = "x86_64-pc-linux-gnu"

@msg_total_size = internal global i32 0, align 4
@.str.121 = private unnamed_addr constant [27 x i8] c"total=%d len=%zu msg='%s'\0A\00", align 1

; Function Attrs: nounwind uwtable
define internal i32 @msg_total_size_log_cb(ptr noundef %0, ptr noundef %1, i32 noundef %2, i32 noundef %3, ptr noundef %4) #0 {
  %6 = alloca ptr, align 8
  %7 = alloca ptr, align 8
  %8 = alloca i32, align 4
  %9 = alloca i32, align 4
  %10 = alloca ptr, align 8
  store ptr %0, ptr %6, align 8, !tbaa !9
  store ptr %1, ptr %7, align 8, !tbaa !9
  store i32 %2, ptr %8, align 4, !tbaa !13
  store i32 %3, ptr %9, align 4, !tbaa !13
  store ptr %4, ptr %10, align 8, !tbaa !9
  %11 = load ptr, ptr %10, align 8, !tbaa !9
  %12 = call i64 @strlen(ptr noundef %11) #6
  %13 = load i32, ptr @msg_total_size, align 4, !tbaa !13
  %14 = sext i32 %13 to i64
  %15 = add i64 %14, %12
  %16 = trunc i64 %15 to i32
  store i32 %16, ptr @msg_total_size, align 4, !tbaa !13
  %17 = load i32, ptr @msg_total_size, align 4, !tbaa !13
  %18 = load ptr, ptr %10, align 8, !tbaa !9
  %19 = call i64 @strlen(ptr noundef %18) #6
  %20 = load ptr, ptr %10, align 8, !tbaa !9
  call void (ptr, ...) @test_note(ptr noundef @.str.121, i32 noundef %17, i64 noundef %19, ptr noundef %20)
  ret i32 1
}