; Function Attrs: nounwind uwtable
define internal noundef i32 @msg_total_size_log_cb(ptr readnone captures(none) %0, ptr readnone captures(none) %1, i32 %2, i32 %3, ptr noundef %4) #1 {
  %6 = tail call i64 @strlen(ptr noundef nonnull dereferenceable(1) %4) #7
  %7 = load i32, ptr @msg_total_size, align 4, !tbaa !41
  %8 = trunc i64 %6 to i32
  %9 = add i32 %7, %8
  store i32 %9, ptr @msg_total_size, align 4, !tbaa !41
  tail call void (ptr, ...) @test_note(ptr noundef nonnull @.str.121, i32 noundef %9, i64 noundef %6, ptr noundef nonnull %4) #6
  ret i32 1
}